

 Start  Stop   Length Name                   Class
 00000H 0311EH 0311FH @CODE                  CODE
 0311FH 0311FH 00000H PROG                   CODE
 03120H 0312FH 00010H @DATAB                 DATAB
 03130H 03568H 00439H @DATAC                 DATAC
 03569H 03665H 000FDH @DATAI                 DATAI
 03666H 03666H 00000H @DATAT                 DATAT
 03666H 03EEBH 00886H @DATAU                 DATAU
 03EECH 03EECH 00000H @DATAV                 DATAV
 03EF0H 03F30H 00041H CODE                   
 03F31H 03F31H 00000H DATA                   DATA
 03F32H 03F32H 00000H @HEAP                  HEAP
 03F40H 0403FH 00100H @STACK                 STACK

 Origin   Group
 0000:0   CGROUP
 0312:0   DGROUP

  Address         Publics by Name

 0000:2CC8       $DADD
 0000:2F63       $DCEQ
 0000:2F8B       $DCGE
 0000:2F83       $DCGR
 0000:2F7B       $DCLE
 0000:2F73       $DCLS
 0000:2F6B       $DCNE
 0000:2DB2       $DCVTI
 0000:2DA1       $DCVTL
 0000:2D8D       $DCVTUI
 0000:2D7C       $DCVTUL
 0000:2EAD       $DDIV
 0000:29F5       $DLOAD
 0000:2DEC       $DMUL
 0000:2C1F       $DNEG
 0000:2CB6       $DRSUB
 0000:2FDD       $DSTORE
 0000:2CBF       $DSUB
 0000:3000       $FLOAD
 0000:3041       $FSTORE
 0000:2C2F       $ICVTD
 0000:2302       $ISWITCH
 0000:2C6D       $LCVTD
 0000:2B46       $LMUL
 0000:0F01       $LRSSHIFT
 0000:0E60       $LSDIV
 0000:0E6A       $LSMOD
 0000:0E65       $LUDIV
 0000:0E6F       $LUMOD
 0000:105B       $MAIN
 0312:0449       @NAME
 03EF:0000       ABSREAD
 03EF:001F       ABSWRITE
 0312:0950       ALL_SIZE
 0000:1F0A       BDOS
 0312:054C       BUF
 0312:097C       BUFF
 0312:097E       BUFF1
 0312:0B7E       BUFF2
 0312:054A       BUF_BYTE
 0000:1F17       CALLOC
 0000:051E       CLEAR_BU
 0000:0F2D       CLOSE
 0000:00BA       COPY1
 0000:013C       COPY2
 0000:0CC0       CREATE_I
 0312:094C       CUM_SIZE
 0312:0548       CUR_SECT
 0312:0453       DERRTAB
 0000:0C8C       DEXIT
 03EF:003E       DMAOVERR
 0312:0D7E       DRIVE
 0000:23DE       DTOS
 0312:0DC6       ERRNO
 0000:0D32       EXIT
 0000:11A3       FCLOSE
 0000:1720       FGETC
 0000:121D       FILENO
 0000:04FA       FLUSH
 0000:17D8       FPUTC
 0000:1F6F       FREE
 0000:235C       FSEEK
 0000:208A       FTELL
 0000:0D6C       GETS
 0000:0AAD       GET_BYTE
 0312:0546       IMAGE
 0000:0B73       IOINIT
 0000:20A1       ISDIGIT
 0000:20E3       LTOS
 0000:0000       MAIN
 0000:2A1F       MALLOC
 0000:226D       MOVMEM
 0000:0DD8       OPEN
 0000:054C       PATCH1
 0000:0630       PATCH2
 0000:07F6       PATCH3
 0000:0B55       PEXIT
 0000:0DEB       PRINTF
 0000:0E0B       PUTS
 0000:0AF4       PUT_BYTE
 0000:0F43       READ
 0000:0B98       READ_BLO
 0000:0390       READ_HEA
 0000:30CB       SBRK
 0000:2290       SEGREAD
 0000:22A1       SETMEM
 0312:0954       SIZES
 0312:0D84       STDERR
 0312:0D80       STDIN
 0312:0D82       STDOUT
 0000:2B11       STRCHR
 0000:112B       STRLEN
 0000:22B6       SYSINT21
 0000:2217       TOLOWER
 0000:2242       TOUPPER
 0000:2323       UNLINK
 0000:18A8       WRITE
 0000:0C12       WRITE_BL
 0000:0447       WR_OUT
 0312:074C       ZERO
 0312:0DC8       _ALLOCB
 0312:0471       _BUFSIZE
 0000:19CD       _DOS2ERR
 0000:1144       _EXIT
 0312:0419       _EXITTBC
 0000:19EC       _FLUSH
 0000:1A2E       _FMTOUT
 0312:0407       _HEAPTOP
 0000:122A       _MAIN
 0312:046F       _MAXFMEM
 0312:0473       _MINFMEM
 0312:0475       _MINRMEM
 0000:14BD       _OPEN
 0312:0D86       _OPENTAB
 0312:0413       _PSPSEG
 0312:0477       _STAKMEM
 0312:0405       _SYSENDP
 0312:0401       _SYSTYPE
 0312:0403       _SYSVERS

  Address         Publics by Value

 0000:0000       MAIN
 0000:00BA       COPY1
 0000:013C       COPY2
 0000:0390       READ_HEA
 0000:0447       WR_OUT
 0000:04FA       FLUSH
 0000:051E       CLEAR_BU
 0000:054C       PATCH1
 0000:0630       PATCH2
 0000:07F6       PATCH3
 0000:0AAD       GET_BYTE
 0000:0AF4       PUT_BYTE
 0000:0B55       PEXIT
 0000:0B73       IOINIT
 0000:0B98       READ_BLO
 0000:0C12       WRITE_BL
 0000:0C8C       DEXIT
 0000:0CC0       CREATE_I
 0000:0D32       EXIT
 0000:0D6C       GETS
 0000:0DD8       OPEN
 0000:0DEB       PRINTF
 0000:0E0B       PUTS
 0000:0E60       $LSDIV
 0000:0E65       $LUDIV
 0000:0E6A       $LSMOD
 0000:0E6F       $LUMOD
 0000:0F01       $LRSSHIFT
 0000:0F2D       CLOSE
 0000:0F43       READ
 0000:105B       $MAIN
 0000:112B       STRLEN
 0000:1144       _EXIT
 0000:11A3       FCLOSE
 0000:121D       FILENO
 0000:122A       _MAIN
 0000:14BD       _OPEN
 0000:1720       FGETC
 0000:17D8       FPUTC
 0000:18A8       WRITE
 0000:19CD       _DOS2ERR
 0000:19EC       _FLUSH
 0000:1A2E       _FMTOUT
 0000:1F0A       BDOS
 0000:1F17       CALLOC
 0000:1F6F       FREE
 0000:208A       FTELL
 0000:20A1       ISDIGIT
 0000:20E3       LTOS
 0000:2217       TOLOWER
 0000:2242       TOUPPER
 0000:226D       MOVMEM
 0000:2290       SEGREAD
 0000:22A1       SETMEM
 0000:22B6       SYSINT21
 0000:2302       $ISWITCH
 0000:2323       UNLINK
 0000:235C       FSEEK
 0000:23DE       DTOS
 0000:29F5       $DLOAD
 0000:2A1F       MALLOC
 0000:2B11       STRCHR
 0000:2B46       $LMUL
 0000:2C1F       $DNEG
 0000:2C2F       $ICVTD
 0000:2C6D       $LCVTD
 0000:2CB6       $DRSUB
 0000:2CBF       $DSUB
 0000:2CC8       $DADD
 0000:2D7C       $DCVTUL
 0000:2D8D       $DCVTUI
 0000:2DA1       $DCVTL
 0000:2DB2       $DCVTI
 0000:2DEC       $DMUL
 0000:2EAD       $DDIV
 0000:2F63       $DCEQ
 0000:2F6B       $DCNE
 0000:2F73       $DCLS
 0000:2F7B       $DCLE
 0000:2F83       $DCGR
 0000:2F8B       $DCGE
 0000:2FDD       $DSTORE
 0000:3000       $FLOAD
 0000:3041       $FSTORE
 0000:30CB       SBRK
 0312:0401       _SYSTYPE
 0312:0403       _SYSVERS
 0312:0405       _SYSENDP
 0312:0407       _HEAPTOP
 0312:0413       _PSPSEG
 0312:0419       _EXITTBC
 0312:0449       @NAME
 0312:0453       DERRTAB
 0312:046F       _MAXFMEM
 0312:0471       _BUFSIZE
 0312:0473       _MINFMEM
 0312:0475       _MINRMEM
 0312:0477       _STAKMEM
 0312:0546       IMAGE
 0312:0548       CUR_SECT
 0312:054A       BUF_BYTE
 0312:054C       BUF
 0312:074C       ZERO
 0312:094C       CUM_SIZE
 0312:0950       ALL_SIZE
 0312:0954       SIZES
 0312:097C       BUFF
 0312:097E       BUFF1
 0312:0B7E       BUFF2
 0312:0D7E       DRIVE
 0312:0D80       STDIN
 0312:0D82       STDOUT
 0312:0D84       STDERR
 0312:0D86       _OPENTAB
 0312:0DC6       ERRNO
 0312:0DC8       _ALLOCB
 03EF:0000       ABSREAD
 03EF:001F       ABSWRITE
 03EF:003E       DMAOVERR
Fixup overflow near 0B7B in segment @CODE in BUILD.OBJ(BUILD) offset 15AEH
Fixup overflow near 0BB0 in segment @CODE in BUILD.OBJ(BUILD) offset 16ABH
Fixup overflow near 0C54 in segment @CODE in BUILD.OBJ(BUILD) offset 17BCH

Program entry point at 0000:105B
