

 Start  Stop   Length Name                   Class
 00000H 02B2DH 02B2EH @CODE                  CODE
 02B2EH 02B2EH 00000H PROG                   CODE
 02B30H 02B3FH 00010H @DATAB                 DATAB
 02B40H 02F64H 00425H @DATAC                 DATAC
 02F65H 0303FH 000DBH @DATAI                 DATAI
 03040H 03040H 00000H @DATAT                 DATAT
 03040H 0368BH 0064CH @DATAU                 DATAU
 0368CH 0368CH 00000H @DATAV                 DATAV
 0368CH 0368CH 00000H DATA                   DATA
 0368CH 0368CH 00000H @HEAP                  HEAP
 03690H 0378FH 00100H @STACK                 STACK

 Origin   Group
 0000:0   CGROUP
 02B3:0   DGROUP

  Address         Publics by Name

 0000:272B       $DADD
 0000:29C6       $DCEQ
 0000:29EE       $DCGE
 0000:29E6       $DCGR
 0000:29DE       $DCLE
 0000:29D6       $DCLS
 0000:29CE       $DCNE
 0000:2815       $DCVTI
 0000:2804       $DCVTL
 0000:27F0       $DCVTUI
 0000:27DF       $DCVTUL
 0000:2910       $DDIV
 0000:251F       $DLOAD
 0000:284F       $DMUL
 0000:2682       $DNEG
 0000:2719       $DRSUB
 0000:2A40       $DSTORE
 0000:2722       $DSUB
 0000:2A63       $FLOAD
 0000:2AA4       $FSTORE
 0000:2692       $ICVTD
 0000:1EBE       $ISWITCH
 0000:26D0       $LCVTD
 0000:085B       $LLSHIFT
 0000:1EDF       $LMUL
 0000:0FC2       $LSDIV
 0000:0FCC       $LSMOD
 0000:0FC7       $LUDIV
 0000:0FD1       $LUMOD
 0000:0DBA       $MAIN
 02B3:0435       A_PTR
 0000:0E8A       BDOS
 0000:0E97       CALLOC
 0000:0887       CLOSE
 0000:089D       CREAT
 0000:1F08       DTOS
 02B3:0437       D_PTR
 02B3:0B56       ERRNO
 0000:07BB       EXIT
 0000:1063       FCLOSE
 0000:134D       FGETC
 0000:10DD       FILENO
 0000:1405       FPUTC
 0000:1A94       FREE
 0000:14D5       FSEEK
 0000:0EEF       FTELL
 02B3:0510       INBUF
 02B3:0710       INBUF2
 0000:1BAF       ISDIGIT
 0000:1BF1       LTOS
 0000:0000       MAIN
 0000:1D25       MALLOC
 0000:1E6D       MOVMEM
 0000:07F5       OPEN
 02B3:0910       OUTBUF
 0000:0808       PRINTF
 0000:0665       PRINTINF
 0000:0B7D       READ
 0000:2549       SBRK
 0000:0F06       SEGREAD
 0000:1E90       SETMEM
 02B3:0B14       STDERR
 02B3:0B10       STDIN
 02B3:0B12       STDOUT
 0000:0828       STRCAT
 0000:259D       STRCHR
 0000:1EA5       STRLEN
 0000:0F17       SYSINT21
 0000:1E17       TOLOWER
 0000:1E42       TOUPPER
 0000:08B1       UNLINK
 0000:0C95       WRITE
 02B3:0B58       _ALLOCB
 02B3:043B       _BUFSIZE
 0000:1557       _DOS2ERR
 0000:0F63       _EXIT
 02B3:042A       _EXITTBC
 0000:1576       _FLUSH
 0000:15B8       _FMTOUT
 02B3:0418       _HEAPTOP
 0000:08EA       _MAIN
 02B3:0439       _MAXFMEM
 02B3:043D       _MINFMEM
 02B3:043F       _MINRMEM
 0000:10EA       _OPEN
 02B3:0B16       _OPENTAB
 02B3:0424       _PSPSEG
 02B3:0441       _STAKMEM
 02B3:0416       _SYSENDP
 02B3:0412       _SYSTYPE
 02B3:0414       _SYSVERS

  Address         Publics by Value

 0000:0000       MAIN
 0000:0665       PRINTINF
 0000:07BB       EXIT
 0000:07F5       OPEN
 0000:0808       PRINTF
 0000:0828       STRCAT
 0000:085B       $LLSHIFT
 0000:0887       CLOSE
 0000:089D       CREAT
 0000:08B1       UNLINK
 0000:08EA       _MAIN
 0000:0B7D       READ
 0000:0C95       WRITE
 0000:0DBA       $MAIN
 0000:0E8A       BDOS
 0000:0E97       CALLOC
 0000:0EEF       FTELL
 0000:0F06       SEGREAD
 0000:0F17       SYSINT21
 0000:0F63       _EXIT
 0000:0FC2       $LSDIV
 0000:0FC7       $LUDIV
 0000:0FCC       $LSMOD
 0000:0FD1       $LUMOD
 0000:1063       FCLOSE
 0000:10DD       FILENO
 0000:10EA       _OPEN
 0000:134D       FGETC
 0000:1405       FPUTC
 0000:14D5       FSEEK
 0000:1557       _DOS2ERR
 0000:1576       _FLUSH
 0000:15B8       _FMTOUT
 0000:1A94       FREE
 0000:1BAF       ISDIGIT
 0000:1BF1       LTOS
 0000:1D25       MALLOC
 0000:1E17       TOLOWER
 0000:1E42       TOUPPER
 0000:1E6D       MOVMEM
 0000:1E90       SETMEM
 0000:1EA5       STRLEN
 0000:1EBE       $ISWITCH
 0000:1EDF       $LMUL
 0000:1F08       DTOS
 0000:251F       $DLOAD
 0000:2549       SBRK
 0000:259D       STRCHR
 0000:2682       $DNEG
 0000:2692       $ICVTD
 0000:26D0       $LCVTD
 0000:2719       $DRSUB
 0000:2722       $DSUB
 0000:272B       $DADD
 0000:27DF       $DCVTUL
 0000:27F0       $DCVTUI
 0000:2804       $DCVTL
 0000:2815       $DCVTI
 0000:284F       $DMUL
 0000:2910       $DDIV
 0000:29C6       $DCEQ
 0000:29CE       $DCNE
 0000:29D6       $DCLS
 0000:29DE       $DCLE
 0000:29E6       $DCGR
 0000:29EE       $DCGE
 0000:2A40       $DSTORE
 0000:2A63       $FLOAD
 0000:2AA4       $FSTORE
 02B3:0412       _SYSTYPE
 02B3:0414       _SYSVERS
 02B3:0416       _SYSENDP
 02B3:0418       _HEAPTOP
 02B3:0424       _PSPSEG
 02B3:042A       _EXITTBC
 02B3:0435       A_PTR
 02B3:0437       D_PTR
 02B3:0439       _MAXFMEM
 02B3:043B       _BUFSIZE
 02B3:043D       _MINFMEM
 02B3:043F       _MINRMEM
 02B3:0441       _STAKMEM
 02B3:0510       INBUF
 02B3:0710       INBUF2
 02B3:0910       OUTBUF
 02B3:0B10       STDIN
 02B3:0B12       STDOUT
 02B3:0B14       STDERR
 02B3:0B16       _OPENTAB
 02B3:0B56       ERRNO
 02B3:0B58       _ALLOCB

Program entry point at 0000:0DBA
