

 Start  Stop   Length Name                   Class
 00000H 036E0H 036E1H @CODE                  CODE
 036F0H 036F0H 00000H @DATAB                 DATAB
 036F0H 04358H 00C69H @DATAC                 DATAC
 04359H 04467H 0010FH @DATAI                 DATAI
 04468H 04468H 00000H @DATAT                 DATAT
 04468H 070CFH 02C68H @DATAU                 DATAU
 070D0H 070D0H 00000H @DATAV                 DATAV
 070D0H 070D0H 00000H @STACK                 STACK

 Origin   Group
 036F:0   DGROUP

  Address         Publics by Name

 0000:359E       $ISWITCH
 0000:3660       $LLSHIFT
 0000:368C       $LMUL
 0000:36B5       $LRSSHIFT
 0000:35BF       $LSDIV
 0000:35C9       $LSMOD
 0000:35C4       $LUDIV
 0000:35CE       $LUMOD
 0000:0000       $MAIN
 036F:39E0       @END
 0000:094C       ALLOC
 0000:1578       ALLOCBIT
 036F:0C88       ANSWER
 0000:34AB       ATOL
 0000:0876       ATOO
 036F:39D4       AUTOMATI
 036F:39BC       BRK
 036F:39B8       CHANGED
 0000:1B2A       CHKCOUNT
 0000:2E6E       CHKDEV
 0000:28BD       CHKDIREC
 0000:22C6       CHKDIRZO
 0000:1DAD       CHKDOTS
 0000:2081       CHKENTRY
 0000:283E       CHKFILE
 0000:18ED       CHKILIST
 0000:25F6       CHKINDZO
 0000:2A09       CHKINODE
 0000:17E1       CHKMAP
 0000:297B       CHKMODE
 0000:1F75       CHKNAME
 0000:1345       CHKSUPER
 0000:2D42       CHKTREE
 0000:170F       CHKWORD
 0000:2760       CHKZONES
 0000:0727       COPY
 036F:39A4       COUNT
 0000:1A1D       COUNTERR
 036F:2D7C       CYLSIZ
 0000:2B27       DESCENDT
 036F:2D94       DEVICE
 0000:0B38       DEVIO
 0000:0C6F       DEVREAD
 0000:0CC2       DEVWRITE
 036F:2DA0       DIRMAP
 0000:0084       DISKIO
 0000:0A91       DISKTYPE
 0000:0103       DMAOVERR
 0000:0370       DOPRNT
 036F:2D78       DRIVE
 0000:15FC       DUMPBITM
 036F:0D78       EDATA
 0000:076E       EOLN
 0000:2459       ERRZONE
 0000:0039       EXIT
 0000:0749       FATAL
 036F:2D96       FIRSTCNT
 036F:39DC       FIRSTLIS
 036F:0C82       FLOPTRK
 0000:16C2       GETBITMA
 0000:0073       GETC
 0000:014F       GETCHAR
 0000:1A02       GETCOUNT
 0000:1265       GETSUPER
 0000:311C       GET_PART
 036F:2D98       IMAP
 0000:164B       INITBITM
 0000:06CD       INITVARS
 036F:0C86       INODE_CT
 0000:08C0       INPUT
 0000:269F       JUMP
 036F:0D78       KERSTACK
 0000:1BEB       LIST
 036F:39D6       LISTING
 036F:39D8       LISTSUPE
 0000:15A1       LOADBITM
 0000:0D75       LSUPER
 0000:2F39       MAIN
 0000:0F1D       MAKEDEV
 036F:39DA       MAKEFS
 0000:24D8       MARKZONE
 0000:105E       MKFS
 036F:39C8       NBADINOD
 036F:39C4       NBLKSPEC
 036F:39C6       NCHARSPE
 036F:39C2       NDIRECTO
 036F:39BE       NFREEINO
 036F:39CA       NFREEZON
 036F:39C0       NREGULAR
 036F:35A4       NULLBUF
 036F:39A6       NULLDIR
 036F:2D7A       PARTITIO
 036F:39DE       PART_OFF
 0000:0D55       PR
 0000:028D       PRINTCHA
 0000:06BC       PRINTK
 0000:099C       PRINTNAM
 0000:0179       PRINTNUM
 0000:0A1E       PRINTPAT
 0000:1B71       PRINTPER
 0000:09E7       PRINTREC
 0000:2D9A       PRINTTOT
 036F:2D92       PROG
 0000:0060       PUTC
 0000:0131       PUTCHAR
 0000:31B6       READ_PAR
 0000:1D2A       REMOVE
 036F:39D2       REPAIR
 0000:0078       RESET_DI
 036F:2DA2       RWBUF
 036F:2DA4       RWBUF1
 036F:31A4       RWBUF2
 036F:2D80       SB
 0000:3380       SORT
 036F:2D9A       SPEC_IMA
 036F:2D9E       SPEC_ZMA
 0000:3550       STRCMP
 0000:3475       SWAP
 036F:39B6       THISBLK
 036F:39BA       TOP
 036F:2D7E       TRACKSIZ
 036F:0C80       VIRGIN
 0000:07C7       YES
 036F:2D9C       ZMAP
 0000:26EA       ZONECHK
 036F:0C84       ZONE_CT
 036F:39CC       ZTYPE
 036F:0CF7       _CTYPE_
 0000:003F       _PRT

  Address         Publics by Value

 0000:0000       $MAIN
 0000:0039       EXIT
 0000:003F       _PRT
 0000:0060       PUTC
 0000:0073       GETC
 0000:0078       RESET_DI
 0000:0084       DISKIO
 0000:0103       DMAOVERR
 0000:0131       PUTCHAR
 0000:014F       GETCHAR
 0000:0179       PRINTNUM
 0000:028D       PRINTCHA
 0000:0370       DOPRNT
 0000:06BC       PRINTK
 0000:06CD       INITVARS
 0000:0727       COPY
 0000:0749       FATAL
 0000:076E       EOLN
 0000:07C7       YES
 0000:0876       ATOO
 0000:08C0       INPUT
 0000:094C       ALLOC
 0000:099C       PRINTNAM
 0000:09E7       PRINTREC
 0000:0A1E       PRINTPAT
 0000:0A91       DISKTYPE
 0000:0B38       DEVIO
 0000:0C6F       DEVREAD
 0000:0CC2       DEVWRITE
 0000:0D55       PR
 0000:0D75       LSUPER
 0000:0F1D       MAKEDEV
 0000:105E       MKFS
 0000:1265       GETSUPER
 0000:1345       CHKSUPER
 0000:1578       ALLOCBIT
 0000:15A1       LOADBITM
 0000:15FC       DUMPBITM
 0000:164B       INITBITM
 0000:16C2       GETBITMA
 0000:170F       CHKWORD
 0000:17E1       CHKMAP
 0000:18ED       CHKILIST
 0000:1A02       GETCOUNT
 0000:1A1D       COUNTERR
 0000:1B2A       CHKCOUNT
 0000:1B71       PRINTPER
 0000:1BEB       LIST
 0000:1D2A       REMOVE
 0000:1DAD       CHKDOTS
 0000:1F75       CHKNAME
 0000:2081       CHKENTRY
 0000:22C6       CHKDIRZO
 0000:2459       ERRZONE
 0000:24D8       MARKZONE
 0000:25F6       CHKINDZO
 0000:269F       JUMP
 0000:26EA       ZONECHK
 0000:2760       CHKZONES
 0000:283E       CHKFILE
 0000:28BD       CHKDIREC
 0000:297B       CHKMODE
 0000:2A09       CHKINODE
 0000:2B27       DESCENDT
 0000:2D42       CHKTREE
 0000:2D9A       PRINTTOT
 0000:2E6E       CHKDEV
 0000:2F39       MAIN
 0000:311C       GET_PART
 0000:31B6       READ_PAR
 0000:3380       SORT
 0000:3475       SWAP
 0000:34AB       ATOL
 0000:3550       STRCMP
 0000:359E       $ISWITCH
 0000:35BF       $LSDIV
 0000:35C4       $LUDIV
 0000:35C9       $LSMOD
 0000:35CE       $LUMOD
 0000:3660       $LLSHIFT
 0000:368C       $LMUL
 0000:36B5       $LRSSHIFT
 036F:0C80       VIRGIN
 036F:0C82       FLOPTRK
 036F:0C84       ZONE_CT
 036F:0C86       INODE_CT
 036F:0C88       ANSWER
 036F:0CF7       _CTYPE_
 036F:0D78       EDATA
 036F:0D78       KERSTACK
 036F:2D78       DRIVE
 036F:2D7A       PARTITIO
 036F:2D7C       CYLSIZ
 036F:2D7E       TRACKSIZ
 036F:2D80       SB
 036F:2D92       PROG
 036F:2D94       DEVICE
 036F:2D96       FIRSTCNT
 036F:2D98       IMAP
 036F:2D9A       SPEC_IMA
 036F:2D9C       ZMAP
 036F:2D9E       SPEC_ZMA
 036F:2DA0       DIRMAP
 036F:2DA2       RWBUF
 036F:2DA4       RWBUF1
 036F:31A4       RWBUF2
 036F:35A4       NULLBUF
 036F:39A4       COUNT
 036F:39A6       NULLDIR
 036F:39B6       THISBLK
 036F:39B8       CHANGED
 036F:39BA       TOP
 036F:39BC       BRK
 036F:39BE       NFREEINO
 036F:39C0       NREGULAR
 036F:39C2       NDIRECTO
 036F:39C4       NBLKSPEC
 036F:39C6       NCHARSPE
 036F:39C8       NBADINOD
 036F:39CA       NFREEZON
 036F:39CC       ZTYPE
 036F:39D2       REPAIR
 036F:39D4       AUTOMATI
 036F:39D6       LISTING
 036F:39D8       LISTSUPE
 036F:39DA       MAKEFS
 036F:39DC       FIRSTLIS
 036F:39DE       PART_OFF
 036F:39E0       @END
